ADDR  OP D1 D2 INST              A  X  Y  SP NVuBDIZC IRQ
----  -- -- -- ---------------   -- -- -- -- -------- ---
4000: A9 00    LDA #$00          00 00 00 00 -----I--   0
4002: 8D 10 02 STA $0210         00 00 00 00 -----IZ-   0
4005: A9 55    LDA #$55          00 00 00 00 -----IZ-   0
4007: 8D 00 02 STA $0200         55 00 00 00 -----I--   0
400A: A9 AA    LDA #$AA          55 00 00 00 -----I--   0
400C: 8D 01 02 STA $0201         AA 00 00 00 N----I--   0
400F: A9 FF    LDA #$FF          AA 00 00 00 N----I--   0
4011: 8D 02 02 STA $0202         FF 00 00 00 N----I--   0
4014: A9 6E    LDA #$6E          FF 00 00 00 N----I--   0
4016: 8D 03 02 STA $0203         6E 00 00 00 -----I--   0
4019: A9 42    LDA #$42          6E 00 00 00 -----I--   0
401B: 8D 04 02 STA $0204         42 00 00 00 -----I--   0
401E: A9 33    LDA #$33          42 00 00 00 -----I--   0
4020: 8D 05 02 STA $0205         33 00 00 00 -----I--   0
4023: A9 9D    LDA #$9D          33 00 00 00 -----I--   0
4025: 8D 06 02 STA $0206         9D 00 00 00 N----I--   0
4028: A9 7F    LDA #$7F          9D 00 00 00 N----I--   0
402A: 8D 07 02 STA $0207         7F 00 00 00 -----I--   0
402D: A9 A5    LDA #$A5          7F 00 00 00 -----I--   0
402F: 8D 08 02 STA $0208         A5 00 00 00 N----I--   0
4032: A9 1F    LDA #$1F          A5 00 00 00 N----I--   0
4034: 8D 09 02 STA $0209         1F 00 00 00 -----I--   0
4037: A9 CE    LDA #$CE          1F 00 00 00 -----I--   0
4039: 8D 0A 02 STA $020A         CE 00 00 00 N----I--   0
403C: A9 29    LDA #$29          CE 00 00 00 N----I--   0
403E: 8D 0B 02 STA $020B         29 00 00 00 -----I--   0
4041: A9 42    LDA #$42          29 00 00 00 -----I--   0
4043: 8D 0C 02 STA $020C         42 00 00 00 -----I--   0
4046: A9 6C    LDA #$6C          42 00 00 00 -----I--   0
4048: 8D 0D 02 STA $020D         6C 00 00 00 -----I--   0
404B: A9 42    LDA #$42          6C 00 00 00 -----I--   0
404D: 8D 0E 02 STA $020E         42 00 00 00 -----I--   0
4050: A9 55    LDA #$55          42 00 00 00 -----I--   0
4052: A2 2A    LDX #$2A          55 00 00 00 -----I--   0
4054: A0 73    LDY #$73          55 2A 00 00 -----I--   0
4056: 85 81    STA $81           55 2A 73 00 -----I--   0
4058: A9 01    LDA #$01          55 2A 73 00 -----I--   0
405A: 85 61    STA $61           01 2A 73 00 -----I--   0
405C: A9 7E    LDA #$7E          01 2A 73 00 -----I--   0
405E: A5 81    LDA $81           7E 2A 73 00 -----I--   0
4060: 8D 10 09 STA $0910         55 2A 73 00 -----I--   0
4063: A9 7E    LDA #$7E          55 2A 73 00 -----I--   0
4065: AD 10 09 LDA $0910         7E 2A 73 00 -----I--   0
4068: 95 56    STA $56,X         55 2A 73 00 -----I--   0
406A: A9 7E    LDA #$7E          55 2A 73 00 -----I--   0
406C: B5 56    LDA $56,X         7E 2A 73 00 -----I--   0
406E: 84 60    STY $60           55 2A 73 00 -----I--   0
4070: 91 60    STA ($60),Y       55 2A 73 00 -----I--   0
4072: A9 7E    LDA #$7E          55 2A 73 00 -----I--   0
4074: B1 60    LDA ($60),Y       7E 2A 73 00 -----I--   0
4076: 9D FF 07 STA $07FF,X       55 2A 73 00 -----I--   0
4079: A9 7E    LDA #$7E          55 2A 73 00 -----I--   0
407B: BD FF 07 LDA $07FF,X       7E 2A 73 00 -----I--   0
407E: 99 FF 07 STA $07FF,Y       55 2A 73 00 -----I--   0
4081: A9 7E    LDA #$7E          55 2A 73 00 -----I--   0
4083: B9 FF 07 LDA $07FF,Y       7E 2A 73 00 -----I--   0
4086: 81 36    STA ($36,X)       55 2A 73 00 -----I--   0
4088: A9 7E    LDA #$7E          55 2A 73 00 -----I--   0
408A: A1 36    LDA ($36,X)       7E 2A 73 00 -----I--   0
408C: 86 50    STX $50           55 2A 73 00 -----I--   0
408E: A6 60    LDX $60           55 2A 73 00 -----I--   0
4090: A4 50    LDY $50           55 73 73 00 -----I--   0
4092: 8E 13 09 STX $0913         55 73 2A 00 -----I--   0
4095: A2 22    LDX #$22          55 73 2A 00 -----I--   0
4097: AE 13 09 LDX $0913         55 22 2A 00 -----I--   0
409A: 8C 14 09 STY $0914         55 73 2A 00 -----I--   0
409D: A0 99    LDY #$99          55 73 2A 00 -----I--   0
409F: AC 14 09 LDY $0914         55 73 99 00 N----I--   0
40A2: 94 2D    STY $2D,X         55 73 2A 00 -----I--   0
40A4: 96 77    STX $77,Y         55 73 2A 00 -----I--   0
40A6: A0 99    LDY #$99          55 73 2A 00 -----I--   0
40A8: B4 2D    LDY $2D,X         55 73 99 00 N----I--   0
40AA: A2 22    LDX #$22          55 73 2A 00 -----I--   0
40AC: B6 77    LDX $77,Y         55 22 2A 00 -----I--   0
40AE: A0 99    LDY #$99          55 73 2A 00 -----I--   0
40B0: BC A0 08 LDY $08A0,X       55 73 99 00 N----I--   0
40B3: A2 22    LDX #$22          55 73 73 00 -----I--   0
40B5: BE A1 08 LDX $08A1,Y       55 22 73 00 -----I--   0
40B8: 9D 00 02 STA $0200,X       55 2A 73 00 -----I--   0
40BB: AD 2A 02 LDA $022A         55 2A 73 00 -----I--   0
40BE: CD 00 02 CMP $0200         55 2A 73 00 -----I--   0
40C1: F0 03    BEQ $40C6         55 2A 73 00 -----IZC   0
40C6: A9 FE    LDA #$FE          55 2A 73 00 -----IZC   0
40C8: 8D 10 02 STA $0210         FE 2A 73 00 N----I-C   0
40CB: A9 55    LDA #$55          FE 2A 73 00 N----I-C   0
40CD: 29 53    AND #$53          55 2A 73 00 -----I-C   0
40CF: 09 38    ORA #$38          51 2A 73 00 -----I-C   0
40D1: 49 11    EOR #$11          79 2A 73 00 -----I-C   0
40D3: 85 99    STA $99           68 2A 73 00 -----I-C   0
40D5: A9 B9    LDA #$B9          68 2A 73 00 -----I-C   0
40D7: 85 10    STA $10           B9 2A 73 00 N----I-C   0
40D9: A9 E7    LDA #$E7          B9 2A 73 00 N----I-C   0
40DB: 85 11    STA $11           E7 2A 73 00 N----I-C   0
40DD: A9 39    LDA #$39          E7 2A 73 00 N----I-C   0
40DF: 85 12    STA $12           39 2A 73 00 -----I-C   0
40E1: A5 99    LDA $99           39 2A 73 00 -----I-C   0
40E3: 25 10    AND $10           68 2A 73 00 -----I-C   0
40E5: 05 11    ORA $11           28 2A 73 00 -----I-C   0
40E7: 45 12    EOR $12           EF 2A 73 00 N----I-C   0
40E9: A2 10    LDX #$10          D6 2A 73 00 N----I-C   0
40EB: 85 99    STA $99           D6 10 73 00 -----I-C   0
40ED: A9 BC    LDA #$BC          D6 10 73 00 -----I-C   0
40EF: 85 20    STA $20           BC 10 73 00 N----I-C   0
40F1: A9 31    LDA #$31          BC 10 73 00 N----I-C   0
40F3: 85 21    STA $21           31 10 73 00 -----I-C   0
40F5: A9 17    LDA #$17          31 10 73 00 -----I-C   0
40F7: 85 22    STA $22           17 10 73 00 -----I-C   0
40F9: A5 99    LDA $99           17 10 73 00 -----I-C   0
40FB: 35 10    AND $10,X         D6 10 73 00 N----I-C   0
40FD: 15 11    ORA $11,X         94 10 73 00 N----I-C   0
40FF: 55 12    EOR $12,X         B5 10 73 00 N----I-C   0
4101: 85 99    STA $99           A2 10 73 00 N----I-C   0
4103: A9 6F    LDA #$6F          A2 10 73 00 N----I-C   0
4105: 8D 10 01 STA $0110         6F 10 73 00 -----I-C   0
4108: A9 3C    LDA #$3C          6F 10 73 00 -----I-C   0
410A: 8D 11 01 STA $0111         3C 10 73 00 -----I-C   0
410D: A9 27    LDA #$27          3C 10 73 00 -----I-C   0
410F: 8D 12 01 STA $0112         27 10 73 00 -----I-C   0
4112: A5 99    LDA $99           27 10 73 00 -----I-C   0
4114: 2D 10 01 AND $0110         A2 10 73 00 N----I-C   0
4117: 0D 11 01 ORA $0111         22 10 73 00 -----I-C   0
411A: 4D 12 01 EOR $0112         3E 10 73 00 -----I-C   0
411D: 85 99    STA $99           19 10 73 00 -----I-C   0
411F: A9 8A    LDA #$8A          19 10 73 00 -----I-C   0
4121: 8D 20 01 STA $0120         8A 10 73 00 N----I-C   0
4124: A9 47    LDA #$47          8A 10 73 00 N----I-C   0
4126: 8D 21 01 STA $0121         47 10 73 00 -----I-C   0
4129: A9 8F    LDA #$8F          47 10 73 00 -----I-C   0
412B: 8D 22 01 STA $0122         8F 10 73 00 N----I-C   0
412E: A5 99    LDA $99           8F 10 73 00 N----I-C   0
4130: 3D 10 01 AND $0110,X       19 10 73 00 -----I-C   0
4133: 1D 11 01 ORA $0111,X       08 10 73 00 -----I-C   0
4136: 5D 12 01 EOR $0112,X       4F 10 73 00 -----I-C   0
4139: A0 20    LDY #$20          C0 10 73 00 N----I-C   0
413B: 85 99    STA $99           C0 10 20 00 -----I-C   0
413D: A9 73    LDA #$73          C0 10 20 00 -----I-C   0
413F: 8D 30 01 STA $0130         73 10 20 00 -----I-C   0
4142: A9 2A    LDA #$2A          73 10 20 00 -----I-C   0
4144: 8D 31 01 STA $0131         2A 10 20 00 -----I-C   0
4147: A9 F1    LDA #$F1          2A 10 20 00 -----I-C   0
4149: 8D 32 01 STA $0132         F1 10 20 00 N----I-C   0
414C: A5 99    LDA $99           F1 10 20 00 N----I-C   0
414E: 39 10 01 AND $0110,Y       C0 10 20 00 N----I-C   0
4151: 19 11 01 ORA $0111,Y       40 10 20 00 -----I-C   0
4154: 59 12 01 EOR $0112,Y       6A 10 20 00 -----I-C   0
4157: 85 99    STA $99           9B 10 20 00 N----I-C   0
4159: A9 70    LDA #$70          9B 10 20 00 N----I-C   0
415B: 85 30    STA $30           70 10 20 00 -----I-C   0
415D: A9 01    LDA #$01          70 10 20 00 -----I-C   0
415F: 85 31    STA $31           01 10 20 00 -----I-C   0
4161: A9 71    LDA #$71          01 10 20 00 -----I-C   0
4163: 85 32    STA $32           71 10 20 00 -----I-C   0
4165: A9 01    LDA #$01          71 10 20 00 -----I-C   0
4167: 85 33    STA $33           01 10 20 00 -----I-C   0
4169: A9 72    LDA #$72          01 10 20 00 -----I-C   0
416B: 85 34    STA $34           72 10 20 00 -----I-C   0
416D: A9 01    LDA #$01          72 10 20 00 -----I-C   0
416F: 85 35    STA $35           01 10 20 00 -----I-C   0
4171: A9 C5    LDA #$C5          01 10 20 00 -----I-C   0
4173: 8D 70 01 STA $0170         C5 10 20 00 N----I-C   0
4176: A9 7C    LDA #$7C          C5 10 20 00 N----I-C   0
4178: 8D 71 01 STA $0171         7C 10 20 00 -----I-C   0
417B: A9 A1    LDA #$A1          7C 10 20 00 -----I-C   0
417D: 8D 72 01 STA $0172         A1 10 20 00 N----I-C   0
4180: A5 99    LDA $99           A1 10 20 00 N----I-C   0
4182: 21 20    AND ($20,X)       9B 10 20 00 N----I-C   0
4184: 01 22    ORA ($22,X)       81 10 20 00 N----I-C   0
4186: 41 24    EOR ($24,X)       FD 10 20 00 N----I-C   0
4188: 85 99    STA $99           5C 10 20 00 -----I-C   0
418A: A9 60    LDA #$60          5C 10 20 00 -----I-C   0
418C: 85 40    STA $40           60 10 20 00 -----I-C   0
418E: A9 01    LDA #$01          60 10 20 00 -----I-C   0
4190: 85 41    STA $41           01 10 20 00 -----I-C   0
4192: A9 61    LDA #$61          01 10 20 00 -----I-C   0
4194: 85 42    STA $42           61 10 20 00 -----I-C   0
4196: A9 01    LDA #$01          61 10 20 00 -----I-C   0
4198: 85 43    STA $43           01 10 20 00 -----I-C   0
419A: A9 62    LDA #$62          01 10 20 00 -----I-C   0
419C: 85 44    STA $44           62 10 20 00 -----I-C   0
419E: A9 01    LDA #$01          62 10 20 00 -----I-C   0
41A0: 85 45    STA $45           01 10 20 00 -----I-C   0
41A2: A9 37    LDA #$37          01 10 20 00 -----I-C   0
41A4: 8D 50 02 STA $0250         37 10 20 00 -----I-C   0
41A7: A9 23    LDA #$23          37 10 20 00 -----I-C   0
41A9: 8D 51 02 STA $0251         23 10 20 00 -----I-C   0
41AC: A9 9D    LDA #$9D          23 10 20 00 -----I-C   0
41AE: 8D 52 02 STA $0252         9D 10 20 00 N----I-C   0
41B1: A5 99    LDA $99           9D 10 20 00 N----I-C   0
41B3: A0 F0    LDY #$F0          5C 10 20 00 -----I-C   0
41B5: 31 40    AND ($40),Y       5C 10 F0 00 N----I-C   0
41B7: 11 42    ORA ($42),Y       14 10 F0 00 -----I-C   0
41B9: 51 44    EOR ($44),Y       37 10 F0 00 -----I-C   0
41BB: 85 A9    STA $A9           AA 10 F0 00 N----I-C   0
41BD: A5 A9    LDA $A9           AA 10 F0 00 N----I-C   0
41BF: CD 01 02 CMP $0201         AA 10 F0 00 N----I-C   0
41C2: F0 08    BEQ $41CC         AA 10 F0 00 -----IZC   0
41CC: A9 FF    LDA #$FF          AA 10 F0 00 -----IZC   0
41CE: A2 00    LDX #$00          FF 10 F0 00 N----I-C   0
41D0: 85 90    STA $90           FF 00 F0 00 -----IZC   0
41D2: E6 90    INC $90           FF 00 F0 00 -----IZC   0
41D4: E6 90    INC $90           FF 00 F0 00 -----IZC   0
41D6: A5 90    LDA $90           FF 00 F0 00 -----I-C   0
41D8: A6 90    LDX $90           01 00 F0 00 -----I-C   0
41DA: 95 90    STA $90,X         01 01 F0 00 -----I-C   0
41DC: F6 90    INC $90,X         01 01 F0 00 -----I-C   0
41DE: B5 90    LDA $90,X         01 01 F0 00 -----I-C   0
41E0: A6 91    LDX $91           02 01 F0 00 -----I-C   0
41E2: 9D 90 01 STA $0190,X       02 02 F0 00 -----I-C   0
41E5: EE 92 01 INC $0192         02 02 F0 00 -----I-C   0
41E8: BD 90 01 LDA $0190,X       02 02 F0 00 -----I-C   0
41EB: AE 92 01 LDX $0192         03 02 F0 00 -----I-C   0
41EE: 9D 90 01 STA $0190,X       03 03 F0 00 -----I-C   0
41F1: FE 90 01 INC $0190,X       03 03 F0 00 -----I-C   0
41F4: BD 90 01 LDA $0190,X       03 03 F0 00 -----I-C   0
41F7: AE 93 01 LDX $0193         04 03 F0 00 -----I-C   0
41FA: 9D 70 01 STA $0170,X       04 04 F0 00 -----I-C   0
41FD: DE 70 01 DEC $0170,X       04 04 F0 00 -----I-C   0
4200: BD 70 01 LDA $0170,X       04 04 F0 00 -----I-C   0
4203: AE 74 01 LDX $0174         03 04 F0 00 -----I-C   0
4206: 9D 70 01 STA $0170,X       03 03 F0 00 -----I-C   0
4209: CE 73 01 DEC $0173         03 03 F0 00 -----I-C   0
420C: BD 70 01 LDA $0170,X       03 03 F0 00 -----I-C   0
420F: AE 73 01 LDX $0173         02 03 F0 00 -----I-C   0
4212: 95 70    STA $70,X         02 02 F0 00 -----I-C   0
4214: D6 70    DEC $70,X         02 02 F0 00 -----I-C   0
4216: B5 70    LDA $70,X         02 02 F0 00 -----I-C   0
4218: A6 72    LDX $72           01 02 F0 00 -----I-C   0
421A: 95 70    STA $70,X         01 01 F0 00 -----I-C   0
421C: C6 71    DEC $71           01 01 F0 00 -----I-C   0
421E: C6 71    DEC $71           01 01 F0 00 -----IZC   0
4220: A5 71    LDA $71           01 01 F0 00 N----I-C   0
4222: CD 02 02 CMP $0202         FF 01 F0 00 N----I-C   0
4225: F0 08    BEQ $422F         FF 01 F0 00 -----IZC   0
422F: A9 4B    LDA #$4B          FF 01 F0 00 -----IZC   0
4231: 4A       LSR A             4B 01 F0 00 -----I-C   0
4232: 0A 85    ASL A             25 01 F0 00 -----I-C   0
4233: 85 50    STA $50           4A 01 F0 00 -----I--   0
4235: 06 50    ASL $50           4A 01 F0 00 -----I--   0
4237: 06 50    ASL $50           4A 01 F0 00 N----I--   0
4239: 46 50    LSR $50           4A 01 F0 00 -----I-C   0
423B: A5 50    LDA $50           4A 01 F0 00 -----I--   0
423D: A6 50    LDX $50           14 01 F0 00 -----I--   0
423F: 09 C9    ORA #$C9          14 14 F0 00 -----I--   0
4241: 85 60    STA $60           DD 14 F0 00 N----I--   0
4243: 16 4C    ASL $4C,X         DD 14 F0 00 N----I--   0
4245: 56 4C    LSR $4C,X         DD 14 F0 00 N----I-C   0
4247: 56 4C    LSR $4C,X         DD 14 F0 00 -----I--   0
4249: B5 4C    LDA $4C,X         DD 14 F0 00 -----I-C   0
424B: A6 60    LDX $60           2E 14 F0 00 -----I-C   0
424D: 09 41    ORA #$41          2E 2E F0 00 -----I-C   0
424F: 8D 2E 01 STA $012E         6F 2E F0 00 -----I-C   0
4252: 5E 00 01 LSR $0100,X       6F 2E F0 00 -----I-C   0
4255: 5E 00 01 LSR $0100,X       6F 2E F0 00 -----I-C   0
4258: 1E 00 01 ASL $0100,X       6F 2E F0 00 -----I-C   0
425B: BD 00 01 LDA $0100,X       6F 2E F0 00 -----I--   0
425E: AE 2E 01 LDX $012E         36 2E F0 00 -----I--   0
4261: 09 81    ORA #$81          36 36 F0 00 -----I--   0
4263: 9D 00 01 STA $0100,X       B7 36 F0 00 N----I--   0
4266: 4E 36 01 LSR $0136         B7 36 F0 00 N----I--   0
4269: 4E 36 01 LSR $0136         B7 36 F0 00 -----I-C   0
426C: 0E 36 01 ASL $0136         B7 36 F0 00 -----I-C   0
426F: BD 00 01 LDA $0100,X       B7 36 F0 00 -----I--   0
4272: 2A       ROL A             5A 36 F0 00 -----I--   0
4273: 2A       ROL A             B4 36 F0 00 N----I--   0
4274: 6A       ROR A             68 36 F0 00 -----I-C   0
4275: 85 70    STA $70           B4 36 F0 00 N----I--   0
4277: A6 70    LDX $70           B4 36 F0 00 N----I--   0
4279: 09 03    ORA #$03          B4 B4 F0 00 N----I--   0
427B: 95 0C    STA $0C,X         B7 B4 F0 00 N----I--   0
427D: 26 C0    ROL $C0           B7 B4 F0 00 N----I--   0
427F: 66 C0    ROR $C0           B7 B4 F0 00 -----I-C   0
4281: 66 C0    ROR $C0           B7 B4 F0 00 N----I--   0
4283: B5 0C    LDA $0C,X         B7 B4 F0 00 -----I-C   0
4285: A6 C0    LDX $C0           5B B4 F0 00 -----I-C   0
4287: 85 D0    STA $D0           5B 5B F0 00 -----I-C   0
4289: 36 75    ROL $75,X         5B 5B F0 00 -----I-C   0
428B: 36 75    ROL $75,X         5B 5B F0 00 N----I--   0
428D: 76 75    ROR $75,X         5B 5B F0 00 -----I-C   0
428F: A5 D0    LDA $D0           5B 5B F0 00 N----I--   0
4291: A6 D0    LDX $D0           B7 5B F0 00 N----I--   0
4293: 9D 00 01 STA $0100,X       B7 B7 F0 00 N----I--   0
4296: 2E B7 01 ROL $01B7         B7 B7 F0 00 N----I--   0
4299: 2E B7 01 ROL $01B7         B7 B7 F0 00 -----I-C   0
429C: 2E B7 01 ROL $01B7         B7 B7 F0 00 N----I--   0
429F: 6E B7 01 ROR $01B7         B7 B7 F0 00 N----I-C   0
42A2: BD 00 01 LDA $0100,X       B7 B7 F0 00 N----I--   0
42A5: AE B7 01 LDX $01B7         DD B7 F0 00 N----I--   0
42A8: 8D DD 01 STA $01DD         DD DD F0 00 N----I--   0
42AB: 3E 00 01 ROL $0100,X       DD DD F0 00 N----I--   0
42AE: 7E 00 01 ROR $0100,X       DD DD F0 00 N----I-C   0
42B1: 7E 00 01 ROR $0100,X       DD DD F0 00 N----I--   0
42B4: AD DD 01 LDA $01DD         DD DD F0 00 -----I-C   0
42B7: CD 03 02 CMP $0203         6E DD F0 00 -----I-C   0
42BA: F0 08    BEQ $42C4         6E DD F0 00 -----IZC   0
42C4: A9 E8    LDA #$E8          6E DD F0 00 -----IZC   0
42C6: 85 20    STA $20           E8 DD F0 00 N----I-C   0
42C8: A9 42    LDA #$42          E8 DD F0 00 N----I-C   0
42CA: 85 21    STA $21           42 DD F0 00 -----I-C   0
42CC: A9 00    LDA #$00          42 DD F0 00 -----I-C   0
42CE: 09 03    ORA #$03          00 DD F0 00 -----IZC   0
42D0: 4C D5 42 JMP $42D5         03 DD F0 00 -----I-C   0
42D5: 09 30    ORA #$30          03 DD F0 00 -----I-C   0
42D7: 20 E1 42 JSR $42E1         33 DD F0 00 -----I-C   0
42E1: 85 30    STA $30           33 DD F0 FE -----I-C   0
42E3: A6 30    LDX $30           33 DD F0 FE -----I-C   0
42E5: A9 00    LDA #$00          33 33 F0 FE -----I-C   0
42E7: 60       RTS               00 33 F0 FE -----IZC   0
42DA: 09 42    ORA #$42          00 33 F0 00 -----IZC   0
42DC: 6C 20 00 JMP ($0020)       42 33 F0 00 -----I-C   0
42E8: 95 0D    STA $0D,X         42 33 F0 00 -----I-C   0
42EA: A5 40    LDA $40           42 33 F0 00 -----I-C   0
42EC: CD 04 02 CMP $0204         42 33 F0 00 -----I-C   0
42EF: F0 08    BEQ $42F9         42 33 F0 00 -----IZC   0
42F9: A9 35    LDA #$35          42 33 F0 00 -----IZC   0
42FB: AA       TAX               35 33 F0 00 -----I-C   0
42FC: CA       DEX               35 35 F0 00 -----I-C   0
42FD: CA       DEX               35 34 F0 00 -----I-C   0
42FE: E8       INX               35 33 F0 00 -----I-C   0
42FF: 8A       TXA               35 34 F0 00 -----I-C   0
4300: A8       TAY               34 34 F0 00 -----I-C   0
4301: 88       DEY               34 34 34 00 -----I-C   0
4302: 88       DEY               34 34 33 00 -----I-C   0
4303: C8       INY               34 34 32 00 -----I-C   0
4304: 98       TYA               34 34 33 00 -----I-C   0
4305: AA       TAX               33 34 33 00 -----I-C   0
4306: A9 20    LDA #$20          33 33 33 00 -----I-C   0
4308: 9A       TXS               20 33 33 00 -----I-C   0
4309: A2 10    LDX #$10          20 33 33 33 -----I-C   0
430B: BA       TSX               20 10 33 33 -----I-C   0
430C: 8A       TXA               20 33 33 33 -----I-C   0
430D: 85 40    STA $40           33 33 33 33 -----I-C   0
430F: A5 40    LDA $40           33 33 33 33 -----I-C   0
4311: CD 05 02 CMP $0205         33 33 33 33 -----I-C   0
4314: F0 08    BEQ $431E         33 33 33 33 -----IZC   0
431E: 2A       ROL A             33 33 33 33 -----IZC   0
431F: A9 6A    LDA #$6A          67 33 33 33 -----I--   0
4321: 85 50    STA $50           6A 33 33 33 -----I--   0
4323: A9 6B    LDA #$6B          6A 33 33 33 -----I--   0
4325: 85 51    STA $51           6B 33 33 33 -----I--   0
4327: A9 A1    LDA #$A1          6B 33 33 33 -----I--   0
4329: 85 60    STA $60           A1 33 33 33 N----I--   0
432B: A9 A2    LDA #$A2          A1 33 33 33 N----I--   0
432D: 85 61    STA $61           A2 33 33 33 N----I--   0
432F: A9 FF    LDA #$FF          A2 33 33 33 N----I--   0
4331: 69 FF    ADC #$FF          FF 33 33 33 N----I--   0
4333: 69 FF    ADC #$FF          FE 33 33 33 N----I-C   0
4335: E9 AE    SBC #$AE          FE 33 33 33 N----I-C   0
4337: 85 40    STA $40           50 33 33 33 -----I-C   0
4339: A6 40    LDX $40           50 33 33 33 -----I-C   0
433B: 75 00    ADC $00,X         50 50 33 33 -----I-C   0
433D: F5 01    SBC $01,X         BB 50 33 33 NV---I--   0
433F: 65 60    ADC $60           4F 50 33 33 -V---I-C   0
4341: E5 61    SBC $61           F1 50 33 33 N----I--   0
4343: 8D 20 01 STA $0120         4E 50 33 33 -----I-C   0
4346: A9 4D    LDA #$4D          4E 50 33 33 -----I-C   0
4348: 8D 21 01 STA $0121         4D 50 33 33 -----I-C   0
434B: A9 23    LDA #$23          4D 50 33 33 -----I-C   0
434D: 6D 20 01 ADC $0120         23 50 33 33 -----I-C   0
4350: ED 21 01 SBC $0121         72 50 33 33 -----I--   0
4353: 85 F0    STA $F0           24 50 33 33 -----I-C   0
4355: A6 F0    LDX $F0           24 50 33 33 -----I-C   0
4357: A9 64    LDA #$64          24 24 33 33 -----I-C   0
4359: 8D 24 01 STA $0124         64 24 33 33 -----I-C   0
435C: A9 62    LDA #$62          64 24 33 33 -----I-C   0
435E: 8D 25 01 STA $0125         62 24 33 33 -----I-C   0
4361: A9 26    LDA #$26          62 24 33 33 -----I-C   0
4363: 7D 00 01 ADC $0100,X       26 24 33 33 -----I-C   0
4366: FD 01 01 SBC $0101,X       8B 24 33 33 NV---I--   0
4369: 85 F1    STA $F1           28 24 33 33 -V---I-C   0
436B: A4 F1    LDY $F1           28 24 33 33 -V---I-C   0
436D: A9 E5    LDA #$E5          28 24 28 33 -V---I-C   0
436F: 8D 28 01 STA $0128         E5 24 28 33 NV---I-C   0
4372: A9 E9    LDA #$E9          E5 24 28 33 NV---I-C   0
4374: 8D 29 01 STA $0129         E9 24 28 33 NV---I-C   0
4377: A9 34    LDA #$34          E9 24 28 33 NV---I-C   0
4379: 79 00 01 ADC $0100,Y       34 24 28 33 -V---I-C   0
437C: F9 01 01 SBC $0101,Y       1A 24 28 33 -----I-C   0
437F: 85 F2    STA $F2           31 24 28 33 -----I--   0
4381: A6 F2    LDX $F2           31 24 28 33 -----I--   0
4383: A9 20    LDA #$20          31 31 28 33 -----I--   0
4385: 85 70    STA $70           20 31 28 33 -----I--   0
4387: A9 01    LDA #$01          20 31 28 33 -----I--   0
4389: 85 71    STA $71           01 31 28 33 -----I--   0
438B: A9 24    LDA #$24          01 31 28 33 -----I--   0
438D: 85 72    STA $72           24 31 28 33 -----I--   0
438F: A9 01    LDA #$01          24 31 28 33 -----I--   0
4391: 85 73    STA $73           01 31 28 33 -----I--   0
4393: 61 41    ADC ($41,X)       01 31 28 33 -----I--   0
4395: E1 3F    SBC ($3F,X)       65 31 28 33 -----I--   0
4397: 85 F3    STA $F3           16 31 28 33 -----I-C   0
4399: A4 F3    LDY $F3           16 31 28 33 -----I-C   0
439B: A9 DA    LDA #$DA          16 31 16 33 -----I-C   0
439D: 85 80    STA $80           DA 31 16 33 N----I-C   0
439F: A9 00    LDA #$00          DA 31 16 33 N----I-C   0
43A1: 85 81    STA $81           00 31 16 33 -----IZC   0
43A3: A9 DC    LDA #$DC          00 31 16 33 -----IZC   0
43A5: 85 82    STA $82           DC 31 16 33 N----I-C   0
43A7: A9 00    LDA #$00          DC 31 16 33 N----I-C   0
43A9: 85 83    STA $83           00 31 16 33 -----IZC   0
43AB: A9 AA    LDA #$AA          00 31 16 33 -----IZC   0
43AD: 71 80    ADC ($80),Y       AA 31 16 33 N----I-C   0
43AF: F1 82    SBC ($82),Y       CF 31 16 33 N----I--   0
43B1: 85 30    STA $30           9D 31 16 33 N----I-C   0
43B3: A5 30    LDA $30           9D 31 16 33 N----I-C   0
43B5: CD 06 02 CMP $0206         9D 31 16 33 N----I-C   0
43B8: F0 08    BEQ $43C2         9D 31 16 33 -----IZC   0
43C2: A9 00    LDA #$00          9D 31 16 33 -----IZC   0
43C4: 85 34    STA $34           00 31 16 33 -----IZC   0
43C6: A9 FF    LDA #$FF          00 31 16 33 -----IZC   0
43C8: 8D 30 01 STA $0130         FF 31 16 33 N----I-C   0
43CB: A9 99    LDA #$99          FF 31 16 33 N----I-C   0
43CD: 8D 9D 01 STA $019D         99 31 16 33 N----I-C   0
43D0: A9 DB    LDA #$DB          99 31 16 33 N----I-C   0
43D2: 8D 99 01 STA $0199         DB 31 16 33 N----I-C   0
43D5: A9 2F    LDA #$2F          DB 31 16 33 N----I-C   0
43D7: 85 32    STA $32           2F 31 16 33 -----I-C   0
43D9: A9 32    LDA #$32          2F 31 16 33 -----I-C   0
43DB: 85 4F    STA $4F           32 31 16 33 -----I-C   0
43DD: A9 30    LDA #$30          32 31 16 33 -----I-C   0
43DF: 85 33    STA $33           30 31 16 33 -----I-C   0
43E1: A9 70    LDA #$70          30 31 16 33 -----I-C   0
43E3: 85 AF    STA $AF           70 31 16 33 -----I-C   0
43E5: A9 18    LDA #$18          70 31 16 33 -----I-C   0
43E7: 85 30    STA $30           18 31 16 33 -----I-C   0
43E9: C9 18    CMP #$18          18 31 16 33 -----I-C   0
43EB: F0 02    BEQ $43EF         18 31 16 33 -----IZC   0
43EF: 09 01    ORA #$01          18 31 16 33 -----IZC   0
43F1: C5 30    CMP $30           19 31 16 33 -----I-C   0
43F3: D0 02    BNE $43F7         19 31 16 33 -----I-C   0
43F7: A2 00    LDX #$00          19 31 16 33 -----I-C   0
43F9: CD 30 01 CMP $0130         19 00 16 33 -----IZC   0
43FC: F0 04    BEQ $4402         19 00 16 33 N----I--   0
43FE: 85 40    STA $40           19 00 16 33 N----I--   0
4400: A6 40    LDX $40           19 00 16 33 N----I--   0
4402: D5 27    CMP $27,X         19 19 16 33 -----I--   0
4404: D0 06    BNE $440C         19 19 16 33 -----IZC   0
4406: 09 84    ORA #$84          19 19 16 33 -----IZC   0
4408: 85 41    STA $41           9D 19 16 33 N----I-C   0
440A: A6 41    LDX $41           9D 19 16 33 N----I-C   0
440C: 29 DB    AND #$DB          9D 9D 16 33 N----I-C   0
440E: DD 00 01 CMP $0100,X       99 9D 16 33 N----I-C   0
4411: F0 02    BEQ $4415         99 9D 16 33 -----IZC   0
4415: 85 42    STA $42           99 9D 16 33 -----IZC   0
4417: A4 42    LDY $42           99 9D 16 33 -----IZC   0
4419: 29 00    AND #$00          99 9D 99 33 N----I-C   0
441B: D9 00 01 CMP $0100,Y       00 9D 99 33 -----IZC   0
441E: D0 02    BNE $4422         00 9D 99 33 N----I--   0
4422: 85 43    STA $43           00 9D 99 33 N----I--   0
4424: A6 43    LDX $43           00 9D 99 33 N----I--   0
4426: 09 24    ORA #$24          00 00 99 33 -----IZ-   0
4428: C1 40    CMP ($40,X)       24 00 99 33 -----I--   0
442A: F0 02    BEQ $442E         24 00 99 33 -----I-C   0
442C: 09 7F    ORA #$7F          24 00 99 33 -----I-C   0
442E: 85 44    STA $44           7F 00 99 33 -----I-C   0
4430: A4 44    LDY $44           7F 00 99 33 -----I-C   0
4432: 49 0F    EOR #$0F          7F 00 7F 33 -----I-C   0
4434: D1 33    CMP ($33),Y       70 00 7F 33 -----I-C   0
4436: D0 04    BNE $443C         70 00 7F 33 -----IZC   0
4438: A5 44    LDA $44           70 00 7F 33 -----IZC   0
443A: 85 15    STA $15           7F 00 7F 33 -----I-C   0
443C: A5 15    LDA $15           7F 00 7F 33 -----I-C   0
443E: CD 07 02 CMP $0207         7F 00 7F 33 -----I-C   0
4441: F0 08    BEQ $444B         7F 00 7F 33 -----IZC   0
444B: A9 A5    LDA #$A5          7F 00 7F 33 -----IZC   0
444D: 85 20    STA $20           A5 00 7F 33 N----I-C   0
444F: 8D 20 01 STA $0120         A5 00 7F 33 N----I-C   0
4452: A9 5A    LDA #$5A          A5 00 7F 33 N----I-C   0
4454: 85 21    STA $21           5A 00 7F 33 -----I-C   0
4456: A2 A5    LDX #$A5          5A 00 7F 33 -----I-C   0
4458: E0 A5    CPX #$A5          5A A5 7F 33 N----I-C   0
445A: F0 02    BEQ $445E         5A A5 7F 33 -----IZC   0
445E: E4 20    CPX $20           5A A5 7F 33 -----IZC   0
4460: F0 02    BEQ $4464         5A A5 7F 33 -----IZC   0
4464: EC 20 01 CPX $0120         5A A5 7F 33 -----IZC   0
4467: F0 02    BEQ $446B         5A A5 7F 33 -----IZC   0
446B: 86 30    STX $30           5A A5 7F 33 -----IZC   0
446D: A4 30    LDY $30           5A A5 7F 33 -----IZC   0
446F: C0 A5    CPY #$A5          5A A5 A5 33 N----I-C   0
4471: F0 02    BEQ $4475         5A A5 A5 33 -----IZC   0
4475: C4 20    CPY $20           5A A5 A5 33 -----IZC   0
4477: F0 02    BEQ $447B         5A A5 A5 33 -----IZC   0
447B: CC 20 01 CPY $0120         5A A5 A5 33 -----IZC   0
447E: F0 02    BEQ $4482         5A A5 A5 33 -----IZC   0
4482: 84 31    STY $31           5A A5 A5 33 -----IZC   0
4484: A5 31    LDA $31           5A A5 A5 33 -----IZC   0
4486: 24 20    BIT $20           A5 A5 A5 33 N----I-C   0
4488: D0 02    BNE $448C         A5 A5 A5 33 N----I-C   0
448C: 2C 20 01 BIT $0120         A5 A5 A5 33 N----I-C   0
448F: D0 02    BNE $4493         A5 A5 A5 33 N----I-C   0
4493: 24 21    BIT $21           A5 A5 A5 33 N----I-C   0
4495: D0 02    BNE $4499         A5 A5 A5 33 -V---IZC   0
4497: 85 42    STA $42           A5 A5 A5 33 -V---IZC   0
4499: A5 42    LDA $42           A5 A5 A5 33 -V---IZC   0
449B: CD 08 02 CMP $0208         A5 A5 A5 33 NV---I-C   0
449E: F0 08    BEQ $44A8         A5 A5 A5 33 -V---IZC   0
44A8: A9 54    LDA #$54          A5 A5 A5 33 -V---IZC   0
44AA: 85 32    STA $32           54 A5 A5 33 -V---I-C   0
44AC: A9 B3    LDA #$B3          54 A5 A5 33 -V---I-C   0
44AE: 85 A1    STA $A1           B3 A5 A5 33 NV---I-C   0
44B0: A9 87    LDA #$87          B3 A5 A5 33 NV---I-C   0
44B2: 85 43    STA $43           87 A5 A5 33 NV---I-C   0
44B4: A2 A1    LDX #$A1          87 A5 A5 33 NV---I-C   0
44B6: 10 02    BPL $44BA         87 A1 A5 33 NV---I-C   0
44B8: A2 32    LDX #$32          87 A1 A5 33 NV---I-C   0
44BA: B4 00    LDY $00,X         87 32 A5 33 -V---I-C   0
44BC: 10 04    BPL $44C2         87 32 54 33 -V---I-C   0
44C2: 30 02    BMI $44C6         87 32 54 33 -V---I-C   0
44C4: E9 03    SBC #$03          87 32 54 33 -V---I-C   0
44C6: 30 02    BMI $44CA         84 32 54 33 N----I-C   0
44CA: 49 30    EOR #$30          84 32 54 33 N----I-C   0
44CC: 85 32    STA $32           B4 32 54 33 N----I-C   0
44CE: 75 00    ADC $00,X         B4 32 54 33 N----I-C   0
44D0: 50 02    BVC $44D4         69 32 54 33 -V---I-C   0
44D2: A9 03    LDA #$03          69 32 54 33 -V---I-C   0
44D4: 85 54    STA $54           03 32 54 33 -V---I-C   0
44D6: B6 00    LDX $00,Y         03 32 54 33 -V---I-C   0
44D8: 75 51    ADC $51,X         03 03 54 33 -V---I-C   0
44DA: 50 02    BVC $44DE         07 03 54 33 -----I--   0
44DE: 75 40    ADC $40,X         07 03 54 33 -----I--   0
44E0: 70 05    BVS $44E7         8E 03 54 33 N----I--   0
44E2: 99 01 00 STA $0001,Y       8E 03 54 33 N----I--   0
44E5: 65 55    ADC $55           8E 03 54 33 N----I--   0
44E7: 70 02    BVS $44EB         1C 03 54 33 -V---I-C   0
44EB: 69 F0    ADC #$F0          1C 03 54 33 -V---I-C   0
44ED: 90 04    BCC $44F3         0D 03 54 33 -----I-C   0
44EF: 85 60    STA $60           0D 03 54 33 -----I-C   0
44F1: 65 43    ADC $43           0D 03 54 33 -----I-C   0
44F3: 90 02    BCC $44F7         95 03 54 33 N----I--   0
44F7: 65 54    ADC $54           95 03 54 33 N----I--   0
44F9: B0 04    BCS $44FF         98 03 54 33 N----I--   0
44FB: 69 87    ADC #$87          98 03 54 33 N----I--   0
44FD: A6 60    LDX $60           1F 03 54 33 -V---I-C   0
44FF: B0 02    BCS $4503         1F 0D 54 33 -V---I-C   0
4503: 95 73    STA $73,X         1F 0D 54 33 -V---I-C   0
4505: A5 80    LDA $80           1F 0D 54 33 -V---I-C   0
4507: CD 09 02 CMP $0209         1F 0D 54 33 -V---I-C   0
450A: F0 08    BEQ $4514         1F 0D 54 33 -V---IZC   0
4514: 69 00    ADC #$00          1F 0D 54 33 -V---IZC   0
4516: A9 99    LDA #$99          20 0D 54 33 -----I--   0
4518: 69 87    ADC #$87          99 0D 54 33 N----I--   0
451A: 18       CLC               20 0D 54 33 -V---I-C   0
451B: EA       NOP               20 0D 54 33 -V---I--   0
451C: 90 04    BCC $4522         20 0D 54 33 -V---I--   0
4522: 38       SEC               20 0D 54 33 -V---I--   0
4523: EA       NOP               20 0D 54 33 -V---I-C   0
4524: 90 01    BCC $4527         20 0D 54 33 -V---I-C   0
4526: B8       CLV               20 0D 54 33 -V---I-C   0
4527: 50 02    BVC $452B         20 0D 54 33 -----I-C   0
452B: 69 AD    ADC #$AD          20 0D 54 33 -----I-C   0
452D: EA       NOP               CE 0D 54 33 N----I--   0
452E: 85 30    STA $30           CE 0D 54 33 N----I--   0
4530: A5 30    LDA $30           CE 0D 54 33 N----I--   0
4532: CD 0A 02 CMP $020A         CE 0D 54 33 N----I--   0
4535: F0 08    BEQ $453F         CE 0D 54 33 -----IZC   0
453F: 69 01    ADC #$01          CE 0D 54 33 -----IZC   0
4541: A9 27    LDA #$27          D0 0D 54 33 N----I--   0
4543: 69 01    ADC #$01          27 0D 54 33 -----I--   0
4545: 38       SEC               28 0D 54 33 -----I--   0
4546: 08       PHP               28 0D 54 33 -----I-C   0
4547: 18       CLC               28 0D 54 32 -----I-C   0
4548: 28       PLP               28 0D 54 32 -----I--   0
4549: 69 00    ADC #$00          28 0D 54 33 -----I-C   0
454B: 48       PHA               29 0D 54 33 -----I--   0
454C: A9 00    LDA #$00          29 0D 54 32 -----I--   0
454E: 68       PLA               00 0D 54 32 -----IZ-   0
454F: 85 30    STA $30           29 0D 54 33 -----I--   0
4551: A5 30    LDA $30           29 0D 54 33 -----I--   0
4553: CD 0B 02 CMP $020B         29 0D 54 33 -----I--   0
4556: F0 08    BEQ $4560         29 0D 54 33 -----IZC   0
4560: 18       CLC               29 0D 54 33 -----IZC   0
4561: A9 42    LDA #$42          29 0D 54 33 -----IZ-   0
4563: 90 04    BCC $4569         42 0D 54 33 -----I--   0
4569: A9 45    LDA #$45          42 0D 54 33 -----I--   0
456B: 48       PHA               45 0D 54 33 -----I--   0
456C: A9 61    LDA #$61          45 0D 54 32 -----I--   0
456E: 48       PHA               61 0D 54 32 -----I--   0
456F: 38       SEC               61 0D 54 31 -----I--   0
4570: 08       PHP               61 0D 54 31 -----I-C   0
4571: 18       CLC               61 0D 54 30 -----I-C   0
4572: 40       RTI               61 0D 54 30 -----I--   0
4561: A9 42    LDA #$42          61 0D 54 33 -----I-C   0
4563: 90 04    BCC $4569         42 0D 54 33 -----I-C   0
4565: 85 33    STA $33           42 0D 54 33 -----I-C   0
4567: B0 0A    BCS $4573         42 0D 54 33 -----I-C   0
4573: A5 33    LDA $33           42 0D 54 33 -----I-C   0
4575: CD 0C 02 CMP $020C         42 0D 54 33 -----I-C   0
4578: F0 08    BEQ $4582         42 0D 54 33 -----IZC   0
4582: 69 01    ADC #$01          42 0D 54 33 -----IZC   0
4584: 78       SEI               44 0D 54 33 -----I--   0
4585: F8       SED               44 0D 54 33 -----I--   0
4586: 08       PHP               44 0D 54 33 ----DI--   0
4587: 68       PLA               44 0D 54 32 ----DI--   0
4588: 85 20    STA $20           3C 0D 54 33 ----DI--   0
458A: 58       CLI               3C 0D 54 33 ----DI--   0
458B: D8       CLD               3C 0D 54 33 ----D---   0
458C: 08       PHP               3C 0D 54 33 --------   0
458D: 68       PLA               3C 0D 54 32 --------   0
458E: 65 20    ADC $20           30 0D 54 33 --------   0
4590: 85 21    STA $21           6C 0D 54 33 --------   0
4592: A5 21    LDA $21           6C 0D 54 33 --------   0
4594: CD 0D 02 CMP $020D         6C 0D 54 33 --------   0
4597: F0 08    BEQ $45A1         6C 0D 54 33 ------ZC   0
45A1: A9 41    LDA #$41          6C 0D 54 33 ------ZC   0
45A3: 85 60    STA $60           41 0D 54 33 -------C   0
45A5: E6 60    INC $60           41 0D 54 33 -------C   0
45A7: A5 60    LDA $60           41 0D 54 33 -------C   0
45A9: CD 0E 02 CMP $020E         42 0D 54 33 -------C   0
45AC: F0 08    BEQ $45B6         42 0D 54 33 ------ZC   0
45B6: A9 FE    LDA #$FE          42 0D 54 33 ------ZC   0
45B8: CD 10 02 CMP $0210         FE 0D 54 33 N------C   0
45BB: D0 03    BNE $45C0         FE 0D 54 33 ------ZC   0
45BD: EE 10 02 INC $0210         FE 0D 54 33 ------ZC   0
45C0: DB       STP               FE 0D 54 33 N------C   0
